target datalayout = "e-m:e-p270:32:32-p271:32:32-p272:64:64-i64:64-i128:128-f80:128-n8:16:32:64-S128"
target triple = "x86_64-unknown-linux-gnu"

; Function Attrs: mustprogress uwtable
define noundef double @_ZNK8QuantLib17GBSMRNDCalculator3pdfEdd(ptr noundef nonnull align 8 dereferenceable(24) %this, double noundef %k, double noundef %t) unnamed_addr #3 align 2 {
entry:
  %this.addr = alloca ptr, align 8
  %k.addr = alloca double, align 8
  %t.addr = alloca double, align 8
  %dk = alloca double, align 8
  store ptr %this, ptr %this.addr, align 8, !tbaa !3
  store double %k, ptr %k.addr, align 8, !tbaa !12
  store double %t, ptr %t.addr, align 8, !tbaa !12
  %this1 = load ptr, ptr %this.addr, align 8
  call void @llvm.lifetime.start.p0(i64 8, ptr %dk) #17
  %0 = load double, ptr %k.addr, align 8, !tbaa !12
  %mul = fmul double 1.000000e-03, %0
  store double %mul, ptr %dk, align 8, !tbaa !12
  %1 = load double, ptr %k.addr, align 8, !tbaa !12
  %2 = load double, ptr %dk, align 8, !tbaa !12
  %add = fadd double %1, %2
  %3 = load double, ptr %t.addr, align 8, !tbaa !12
  %vtable = load ptr, ptr %this1, align 8, !tbaa !7
  %vfn = getelementptr inbounds ptr, ptr %vtable, i64 1
  %4 = load ptr, ptr %vfn, align 8
  %call = call noundef double %4(ptr noundef nonnull align 8 dereferenceable(24) %this1, double noundef %add, double noundef %3)
  %5 = load double, ptr %k.addr, align 8, !tbaa !12
  %6 = load double, ptr %dk, align 8, !tbaa !12
  %sub = fsub double %5, %6
  %7 = load double, ptr %t.addr, align 8, !tbaa !12
  %vtable2 = load ptr, ptr %this1, align 8, !tbaa !7
  %vfn3 = getelementptr inbounds ptr, ptr %vtable2, i64 1
  %8 = load ptr, ptr %vfn3, align 8
  %call4 = call noundef double %8(ptr noundef nonnull align 8 dereferenceable(24) %this1, double noundef %sub, double noundef %7)
  %sub5 = fsub double %call, %call4
  %9 = load double, ptr %dk, align 8, !tbaa !12
  %mul6 = fmul double 2.000000e+00, %9
  %div = fdiv double %sub5, %mul6
  call void @llvm.lifetime.end.p0(i64 8, ptr %dk) #17
  ret double %div
}