; Function Attrs: mustprogress uwtable
define noundef double @_ZNK8QuantLib17GBSMRNDCalculator3pdfEdd(ptr noundef nonnull align 8 dereferenceable(24) %this, double noundef %k, double noundef %t) unnamed_addr #3 align 2 {
entry:
  %mul = fmul double %k, 1.000000e-03
  %add = fadd double %k, %mul
  %vtable = load ptr, ptr %this, align 8, !tbaa !14
  %vfn = getelementptr inbounds i8, ptr %vtable, i64 8
  %0 = load ptr, ptr %vfn, align 8
  %call = tail call noundef double %0(ptr noundef nonnull align 8 dereferenceable(24) %this, double noundef %add, double noundef %t)
  %sub = fsub double %k, %mul
  %vtable2 = load ptr, ptr %this, align 8, !tbaa !14
  %vfn3 = getelementptr inbounds i8, ptr %vtable2, i64 8
  %1 = load ptr, ptr %vfn3, align 8
  %call4 = tail call noundef double %1(ptr noundef nonnull align 8 dereferenceable(24) %this, double noundef %sub, double noundef %t)
  %sub5 = fsub double %call, %call4
  %mul6 = fmul double %mul, 2.000000e+00
  %div = fdiv double %sub5, %mul6
  ret double %div
}